target datalayout = "e-m:e-p270:32:32-p271:32:32-p272:64:64-i64:64-i128:128-f80:128-n8:16:32:64-S128"
target triple = "x86_64-pc-linux-gnu"

; Function Attrs: nounwind uwtable
define void @Abc_SortMergeCost2(ptr noundef %0, ptr noundef %1, ptr noundef %2, ptr noundef %3, ptr noundef %4, ptr noundef %5) #0 {
  %7 = alloca ptr, align 8
  %8 = alloca ptr, align 8
  %9 = alloca ptr, align 8
  %10 = alloca ptr, align 8
  %11 = alloca ptr, align 8
  %12 = alloca ptr, align 8
  %13 = alloca i32, align 4
  %14 = alloca ptr, align 8
  store ptr %0, ptr %7, align 8
  store ptr %1, ptr %8, align 8
  store ptr %2, ptr %9, align 8
  store ptr %3, ptr %10, align 8
  store ptr %4, ptr %11, align 8
  store ptr %5, ptr %12, align 8
  %15 = load ptr, ptr %8, align 8
  %16 = load ptr, ptr %7, align 8
  %17 = ptrtoint ptr %15 to i64
  %18 = ptrtoint ptr %16 to i64
  %19 = sub i64 %17, %18
  %20 = sdiv exact i64 %19, 4
  %21 = load ptr, ptr %10, align 8
  %22 = load ptr, ptr %9, align 8
  %23 = ptrtoint ptr %21 to i64
  %24 = ptrtoint ptr %22 to i64
  %25 = sub i64 %23, %24
  %26 = sdiv exact i64 %25, 4
  %27 = add nsw i64 %20, %26
  %28 = trunc i64 %27 to i32
  store i32 %28, ptr %13, align 4
  %29 = load ptr, ptr %11, align 8
  store ptr %29, ptr %14, align 8
  br label %30

30:                                               ; preds = %92, %6
  %31 = load ptr, ptr %7, align 8
  %32 = load ptr, ptr %8, align 8
  %33 = icmp ult ptr %31, %32
  br i1 %33, label %34, label %38

34:                                               ; preds = %30
  %35 = load ptr, ptr %9, align 8
  %36 = load ptr, ptr %10, align 8
  %37 = icmp ult ptr %35, %36
  br label %38

38:                                               ; preds = %34, %30
  %39 = phi i1 [ false, %30 ], [ %37, %34 ]
  br i1 %39, label %40, label %93

40:                                               ; preds = %38
  %41 = load ptr, ptr %12, align 8
  %42 = load ptr, ptr %7, align 8
  %43 = load i32, ptr %42, align 4
  %44 = sext i32 %43 to i64
  %45 = getelementptr inbounds i32, ptr %41, i64 %44
  %46 = load i32, ptr %45, align 4
  %47 = load ptr, ptr %12, align 8
  %48 = load ptr, ptr %9, align 8
  %49 = load i32, ptr %48, align 4
  %50 = sext i32 %49 to i64
  %51 = getelementptr inbounds i32, ptr %47, i64 %50
  %52 = load i32, ptr %51, align 4
  %53 = icmp eq i32 %46, %52
  br i1 %53, label %54, label %65

54:                                               ; preds = %40
  %55 = load ptr, ptr %7, align 8
  %56 = getelementptr inbounds i32, ptr %55, i32 1
  store ptr %56, ptr %7, align 8
  %57 = load i32, ptr %55, align 4
  %58 = load ptr, ptr %11, align 8
  %59 = getelementptr inbounds i32, ptr %58, i32 1
  store ptr %59, ptr %11, align 8
  store i32 %57, ptr %58, align 4
  %60 = load ptr, ptr %9, align 8
  %61 = getelementptr inbounds i32, ptr %60, i32 1
  store ptr %61, ptr %9, align 8
  %62 = load i32, ptr %60, align 4
  %63 = load ptr, ptr %11, align 8
  %64 = getelementptr inbounds i32, ptr %63, i32 1
  store ptr %64, ptr %11, align 8
  store i32 %62, ptr %63, align 4
  br label %92

65:                                               ; preds = %40
  %66 = load ptr, ptr %12, align 8
  %67 = load ptr, ptr %7, align 8
  %68 = load i32, ptr %67, align 4
  %69 = sext i32 %68 to i64
  %70 = getelementptr inbounds i32, ptr %66, i64 %69
  %71 = load i32, ptr %70, align 4
  %72 = load ptr, ptr %12, align 8
  %73 = load ptr, ptr %9, align 8
  %74 = load i32, ptr %73, align 4
  %75 = sext i32 %74 to i64
  %76 = getelementptr inbounds i32, ptr %72, i64 %75
  %77 = load i32, ptr %76, align 4
  %78 = icmp slt i32 %71, %77
  br i1 %78, label %79, label %85

79:                                               ; preds = %65
  %80 = load ptr, ptr %7, align 8
  %81 = getelementptr inbounds i32, ptr %80, i32 1
  store ptr %81, ptr %7, align 8
  %82 = load i32, ptr %80, align 4
  %83 = load ptr, ptr %11, align 8
  %84 = getelementptr inbounds i32, ptr %83, i32 1
  store ptr %84, ptr %11, align 8
  store i32 %82, ptr %83, align 4
  br label %91

85:                                               ; preds = %65
  %86 = load ptr, ptr %9, align 8
  %87 = getelementptr inbounds i32, ptr %86, i32 1
  store ptr %87, ptr %9, align 8
  %88 = load i32, ptr %86, align 4
  %89 = load ptr, ptr %11, align 8
  %90 = getelementptr inbounds i32, ptr %89, i32 1
  store ptr %90, ptr %11, align 8
  store i32 %88, ptr %89, align 4
  br label %91

91:                                               ; preds = %85, %79
  br label %92

92:                                               ; preds = %91, %54
  br label %30, !llvm.loop !10

93:                                               ; preds = %38
  br label %94

94:                                               ; preds = %98, %93
  %95 = load ptr, ptr %7, align 8
  %96 = load ptr, ptr %8, align 8
  %97 = icmp ult ptr %95, %96
  br i1 %97, label %98, label %104

98:                                               ; preds = %94
  %99 = load ptr, ptr %7, align 8
  %100 = getelementptr inbounds i32, ptr %99, i32 1
  store ptr %100, ptr %7, align 8
  %101 = load i32, ptr %99, align 4
  %102 = load ptr, ptr %11, align 8
  %103 = getelementptr inbounds i32, ptr %102, i32 1
  store ptr %103, ptr %11, align 8
  store i32 %101, ptr %102, align 4
  br label %94, !llvm.loop !11

104:                                              ; preds = %94
  br label %105

105:                                              ; preds = %109, %104
  %106 = load ptr, ptr %9, align 8
  %107 = load ptr, ptr %10, align 8
  %108 = icmp ult ptr %106, %107
  br i1 %108, label %109, label %115

109:                                              ; preds = %105
  %110 = load ptr, ptr %9, align 8
  %111 = getelementptr inbounds i32, ptr %110, i32 1
  store ptr %111, ptr %9, align 8
  %112 = load i32, ptr %110, align 4
  %113 = load ptr, ptr %11, align 8
  %114 = getelementptr inbounds i32, ptr %113, i32 1
  store ptr %114, ptr %11, align 8
  store i32 %112, ptr %113, align 4
  br label %105, !llvm.loop !12

115:                                              ; preds = %105
  ret void
}

; Function Attrs: nounwind uwtable
define void @Abc_SortCost2_rec(ptr noundef %0, ptr noundef %1, ptr noundef %2, ptr noundef %3) #0 {
  %5 = alloca ptr, align 8
  %6 = alloca ptr, align 8
  %7 = alloca ptr, align 8
  %8 = alloca ptr, align 8
  %9 = alloca i32, align 4
  %10 = alloca i32, align 4
  %11 = alloca i32, align 4
  %12 = alloca i32, align 4
  %13 = alloca i32, align 4
  store ptr %0, ptr %5, align 8
  store ptr %1, ptr %6, align 8
  store ptr %2, ptr %7, align 8
  store ptr %3, ptr %8, align 8
  %14 = load ptr, ptr %6, align 8
  %15 = load ptr, ptr %5, align 8
  %16 = ptrtoint ptr %14 to i64
  %17 = ptrtoint ptr %15 to i64
  %18 = sub i64 %16, %17
  %19 = sdiv exact i64 %18, 4
  %20 = trunc i64 %19 to i32
  store i32 %20, ptr %9, align 4
  %21 = load i32, ptr %9, align 4
  %22 = icmp eq i32 %21, 1
  br i1 %22, label %23, label %24

23:                                               ; preds = %4
  br label %174

24:                                               ; preds = %4
  %25 = load i32, ptr %9, align 4
  %26 = icmp eq i32 %25, 2
  br i1 %26, label %27, label %66

27:                                               ; preds = %24
  %28 = load ptr, ptr %8, align 8
  %29 = load ptr, ptr %5, align 8
  %30 = getelementptr inbounds i32, ptr %29, i64 0
  %31 = load i32, ptr %30, align 4
  %32 = sext i32 %31 to i64
  %33 = getelementptr inbounds i32, ptr %28, i64 %32
  %34 = load i32, ptr %33, align 4
  %35 = load ptr, ptr %8, align 8
  %36 = load ptr, ptr %5, align 8
  %37 = getelementptr inbounds i32, ptr %36, i64 1
  %38 = load i32, ptr %37, align 4
  %39 = sext i32 %38 to i64
  %40 = getelementptr inbounds i32, ptr %35, i64 %39
  %41 = load i32, ptr %40, align 4
  %42 = icmp sgt i32 %34, %41
  br i1 %42, label %43, label %65

43:                                               ; preds = %27
  %44 = load ptr, ptr %5, align 8
  %45 = getelementptr inbounds i32, ptr %44, i64 1
  %46 = load i32, ptr %45, align 4
  %47 = load ptr, ptr %5, align 8
  %48 = getelementptr inbounds i32, ptr %47, i64 0
  %49 = load i32, ptr %48, align 4
  %50 = xor i32 %49, %46
  store i32 %50, ptr %48, align 4
  %51 = load ptr, ptr %5, align 8
  %52 = getelementptr inbounds i32, ptr %51, i64 0
  %53 = load i32, ptr %52, align 4
  %54 = load ptr, ptr %5, align 8
  %55 = getelementptr inbounds i32, ptr %54, i64 1
  %56 = load i32, ptr %55, align 4
  %57 = xor i32 %56, %53
  store i32 %57, ptr %55, align 4
  %58 = load ptr, ptr %5, align 8
  %59 = getelementptr inbounds i32, ptr %58, i64 1
  %60 = load i32, ptr %59, align 4
  %61 = load ptr, ptr %5, align 8
  %62 = getelementptr inbounds i32, ptr %61, i64 0
  %63 = load i32, ptr %62, align 4
  %64 = xor i32 %63, %60
  store i32 %64, ptr %62, align 4
  br label %65

65:                                               ; preds = %43, %27
  br label %174

66:                                               ; preds = %24
  %67 = load i32, ptr %9, align 4
  %68 = icmp slt i32 %67, 8
  br i1 %68, label %69, label %133

69:                                               ; preds = %66
  store i32 0, ptr %11, align 4
  br label %70

70:                                               ; preds = %129, %69
  %71 = load i32, ptr %11, align 4
  %72 = load i32, ptr %9, align 4
  %73 = sub nsw i32 %72, 1
  %74 = icmp slt i32 %71, %73
  br i1 %74, label %75, label %132

75:                                               ; preds = %70
  %76 = load i32, ptr %11, align 4
  store i32 %76, ptr %13, align 4
  %77 = load i32, ptr %11, align 4
  %78 = add nsw i32 %77, 1
  store i32 %78, ptr %12, align 4
  br label %79

79:                                               ; preds = %106, %75
  %80 = load i32, ptr %12, align 4
  %81 = load i32, ptr %9, align 4
  %82 = icmp slt i32 %80, %81
  br i1 %82, label %83, label %109

83:                                               ; preds = %79
  %84 = load ptr, ptr %8, align 8
  %85 = load ptr, ptr %5, align 8
  %86 = load i32, ptr %12, align 4
  %87 = sext i32 %86 to i64
  %88 = getelementptr inbounds i32, ptr %85, i64 %87
  %89 = load i32, ptr %88, align 4
  %90 = sext i32 %89 to i64
  %91 = getelementptr inbounds i32, ptr %84, i64 %90
  %92 = load i32, ptr %91, align 4
  %93 = load ptr, ptr %8, align 8
  %94 = load ptr, ptr %5, align 8
  %95 = load i32, ptr %13, align 4
  %96 = sext i32 %95 to i64
  %97 = getelementptr inbounds i32, ptr %94, i64 %96
  %98 = load i32, ptr %97, align 4
  %99 = sext i32 %98 to i64
  %100 = getelementptr inbounds i32, ptr %93, i64 %99
  %101 = load i32, ptr %100, align 4
  %102 = icmp slt i32 %92, %101
  br i1 %102, label %103, label %105

103:                                              ; preds = %83
  %104 = load i32, ptr %12, align 4
  store i32 %104, ptr %13, align 4
  br label %105

105:                                              ; preds = %103, %83
  br label %106

106:                                              ; preds = %105
  %107 = load i32, ptr %12, align 4
  %108 = add nsw i32 %107, 1
  store i32 %108, ptr %12, align 4
  br label %79, !llvm.loop !13

109:                                              ; preds = %79
  %110 = load ptr, ptr %5, align 8
  %111 = load i32, ptr %11, align 4
  %112 = sext i32 %111 to i64
  %113 = getelementptr inbounds i32, ptr %110, i64 %112
  %114 = load i32, ptr %113, align 4
  store i32 %114, ptr %10, align 4
  %115 = load ptr, ptr %5, align 8
  %116 = load i32, ptr %13, align 4
  %117 = sext i32 %116 to i64
  %118 = getelementptr inbounds i32, ptr %115, i64 %117
  %119 = load i32, ptr %118, align 4
  %120 = load ptr, ptr %5, align 8
  %121 = load i32, ptr %11, align 4
  %122 = sext i32 %121 to i64
  %123 = getelementptr inbounds i32, ptr %120, i64 %122
  store i32 %119, ptr %123, align 4
  %124 = load i32, ptr %10, align 4
  %125 = load ptr, ptr %5, align 8
  %126 = load i32, ptr %13, align 4
  %127 = sext i32 %126 to i64
  %128 = getelementptr inbounds i32, ptr %125, i64 %127
  store i32 %124, ptr %128, align 4
  br label %129

129:                                              ; preds = %109
  %130 = load i32, ptr %11, align 4
  %131 = add nsw i32 %130, 1
  store i32 %131, ptr %11, align 4
  br label %70, !llvm.loop !14

132:                                              ; preds = %70
  br label %173

133:                                              ; preds = %66
  %134 = load ptr, ptr %5, align 8
  %135 = load ptr, ptr %5, align 8
  %136 = load i32, ptr %9, align 4
  %137 = sdiv i32 %136, 2
  %138 = sext i32 %137 to i64
  %139 = getelementptr inbounds i32, ptr %135, i64 %138
  %140 = load ptr, ptr %7, align 8
  %141 = load ptr, ptr %8, align 8
  call void @Abc_SortCost2_rec(ptr noundef %134, ptr noundef %139, ptr noundef %140, ptr noundef %141)
  %142 = load ptr, ptr %5, align 8
  %143 = load i32, ptr %9, align 4
  %144 = sdiv i32 %143, 2
  %145 = sext i32 %144 to i64
  %146 = getelementptr inbounds i32, ptr %142, i64 %145
  %147 = load ptr, ptr %6, align 8
  %148 = load ptr, ptr %7, align 8
  %149 = load i32, ptr %9, align 4
  %150 = sdiv i32 %149, 2
  %151 = sext i32 %150 to i64
  %152 = getelementptr inbounds i32, ptr %148, i64 %151
  %153 = load ptr, ptr %8, align 8
  call void @Abc_SortCost2_rec(ptr noundef %146, ptr noundef %147, ptr noundef %152, ptr noundef %153)
  %154 = load ptr, ptr %5, align 8
  %155 = load ptr, ptr %5, align 8
  %156 = load i32, ptr %9, align 4
  %157 = sdiv i32 %156, 2
  %158 = sext i32 %157 to i64
  %159 = getelementptr inbounds i32, ptr %155, i64 %158
  %160 = load ptr, ptr %5, align 8
  %161 = load i32, ptr %9, align 4
  %162 = sdiv i32 %161, 2
  %163 = sext i32 %162 to i64
  %164 = getelementptr inbounds i32, ptr %160, i64 %163
  %165 = load ptr, ptr %6, align 8
  %166 = load ptr, ptr %7, align 8
  %167 = load ptr, ptr %8, align 8
  call void @Abc_SortMergeCost2(ptr noundef %154, ptr noundef %159, ptr noundef %164, ptr noundef %165, ptr noundef %166, ptr noundef %167)
  %168 = load ptr, ptr %5, align 8
  %169 = load ptr, ptr %7, align 8
  %170 = load i32, ptr %9, align 4
  %171 = sext i32 %170 to i64
  %172 = mul i64 4, %171
  call void @llvm.memcpy.p0.p0.i64(ptr align 4 %168, ptr align 4 %169, i64 %172, i1 false)
  br label %173

173:                                              ; preds = %133, %132
  br label %174

174:                                              ; preds = %173, %65, %23
  ret void
}